; Function Attrs: mustprogress nounwind uwtable
define hidden void @_ZN2qe21simplify_rewriter_cfgD2Ev(ptr nocapture noundef nonnull readonly align 8 dereferenceable(8) %this) unnamed_addr #4 align 2 personality ptr @__gxx_personality_v0 {
entry:
  %0 = load ptr, ptr %this, align 8
  %cmp.i = icmp eq ptr %0, null
  br i1 %cmp.i, label %invoke.cont, label %if.end.i

if.end.i:                                         ; preds = %entry
  %m_ctx.i.i = getelementptr inbounds i8, ptr %0, i64 8
  tail call void @_ZN2qe23simplify_solver_contextD2Ev(ptr noundef nonnull align 8 dereferenceable(928) %m_ctx.i.i) #24
  invoke void @_ZN6memory10deallocateEPv(ptr noundef nonnull %0)
          to label %invoke.cont unwind label %terminate.lpad

invoke.cont:                                      ; preds = %entry, %if.end.i
  ret void

terminate.lpad:                                   ; preds = %if.end.i
  %1 = landingpad { ptr, i32 }
          catch ptr null
  %2 = extractvalue { ptr, i32 } %1, 0
  tail call void @__clang_call_terminate(ptr %2) #25
  unreachable
}